target datalayout = "e-m:e-p270:32:32-p271:32:32-p272:64:64-i64:64-i128:128-f80:128-n8:16:32:64-S128"
target triple = "x86_64-unknown-linux-gnu"

%"class.icu_75::UObject" = type { ptr }
%"class.icu_75::MeasureFormat" = type { %"class.icu_75::Format.base", ptr, ptr, ptr, i32, ptr }
%"class.icu_75::Format.base" = type <{ %"class.icu_75::UObject", [157 x i8], [157 x i8] }>

; Function Attrs: mustprogress nounwind uwtable
define void @_ZN6icu_7513MeasureFormatD2Ev(ptr noundef nonnull align 8 dereferenceable(368) %this) unnamed_addr #0 align 2 personality ptr @__gxx_personality_v0 {
entry:
  %this.addr = alloca ptr, align 8
  store ptr %this, ptr %this.addr, align 8
  %this1 = load ptr, ptr %this.addr, align 8
  store ptr getelementptr inbounds ({ [10 x ptr] }, ptr @_ZTVN6icu_7513MeasureFormatE, i32 0, i32 0, i32 2), ptr %this1, align 8
  %cache = getelementptr inbounds %"class.icu_75::MeasureFormat", ptr %this1, i32 0, i32 1
  %0 = load ptr, ptr %cache, align 8
  %cmp = icmp ne ptr %0, null
  br i1 %cmp, label %if.then, label %if.end

if.then:                                          ; preds = %entry
  %cache2 = getelementptr inbounds %"class.icu_75::MeasureFormat", ptr %this1, i32 0, i32 1
  %1 = load ptr, ptr %cache2, align 8
  invoke void @_ZNK6icu_7512SharedObject9removeRefEv(ptr noundef nonnull align 8 dereferenceable(24) %1)
          to label %invoke.cont unwind label %terminate.lpad

invoke.cont:                                      ; preds = %if.then
  br label %if.end

if.end:                                           ; preds = %invoke.cont, %entry
  %numberFormat = getelementptr inbounds %"class.icu_75::MeasureFormat", ptr %this1, i32 0, i32 2
  %2 = load ptr, ptr %numberFormat, align 8
  %cmp3 = icmp ne ptr %2, null
  br i1 %cmp3, label %if.then4, label %if.end7

if.then4:                                         ; preds = %if.end
  %numberFormat5 = getelementptr inbounds %"class.icu_75::MeasureFormat", ptr %this1, i32 0, i32 2
  %3 = load ptr, ptr %numberFormat5, align 8
  invoke void @_ZNK6icu_7512SharedObject9removeRefEv(ptr noundef nonnull align 8 dereferenceable(24) %3)
          to label %invoke.cont6 unwind label %terminate.lpad

invoke.cont6:                                     ; preds = %if.then4
  br label %if.end7

if.end7:                                          ; preds = %invoke.cont6, %if.end
  %pluralRules = getelementptr inbounds %"class.icu_75::MeasureFormat", ptr %this1, i32 0, i32 3
  %4 = load ptr, ptr %pluralRules, align 8
  %cmp8 = icmp ne ptr %4, null
  br i1 %cmp8, label %if.then9, label %if.end12

if.then9:                                         ; preds = %if.end7
  %pluralRules10 = getelementptr inbounds %"class.icu_75::MeasureFormat", ptr %this1, i32 0, i32 3
  %5 = load ptr, ptr %pluralRules10, align 8
  invoke void @_ZNK6icu_7512SharedObject9removeRefEv(ptr noundef nonnull align 8 dereferenceable(24) %5)
          to label %invoke.cont11 unwind label %terminate.lpad

invoke.cont11:                                    ; preds = %if.then9
  br label %if.end12

if.end12:                                         ; preds = %invoke.cont11, %if.end7
  %listFormatter = getelementptr inbounds %"class.icu_75::MeasureFormat", ptr %this1, i32 0, i32 5
  %6 = load ptr, ptr %listFormatter, align 8
  %isnull = icmp eq ptr %6, null
  br i1 %isnull, label %delete.end, label %delete.notnull

delete.notnull:                                   ; preds = %if.end12
  %vtable = load ptr, ptr %6, align 8
  %vfn = getelementptr inbounds ptr, ptr %vtable, i64 1
  %7 = load ptr, ptr %vfn, align 8
  call void %7(ptr noundef nonnull align 8 dereferenceable(24) %6) #12
  br label %delete.end

delete.end:                                       ; preds = %delete.notnull, %if.end12
  call void @_ZN6icu_756FormatD2Ev(ptr noundef nonnull align 8 dereferenceable(322) %this1) #12
  ret void

terminate.lpad:                                   ; preds = %if.then9, %if.then4, %if.then
  %8 = landingpad { ptr, i32 }
          catch ptr null
  %9 = extractvalue { ptr, i32 } %8, 0
  call void @__clang_call_terminate(ptr %9) #14
  unreachable
}