; Function Attrs: mustprogress nounwind uwtable
define void @_ZN6icu_7513MeasureFormatD2Ev(ptr noundef nonnull align 8 dereferenceable(368) %this) unnamed_addr #0 align 2 personality ptr @__gxx_personality_v0 {
entry:
  store ptr getelementptr inbounds ({ [10 x ptr] }, ptr @_ZTVN6icu_7513MeasureFormatE, i64 0, i32 0, i64 2), ptr %this, align 8
  %cache = getelementptr inbounds i8, ptr %this, i64 328
  %0 = load ptr, ptr %cache, align 8
  %cmp.not = icmp eq ptr %0, null
  br i1 %cmp.not, label %if.end, label %if.then

if.then:                                          ; preds = %entry
  invoke void @_ZNK6icu_7512SharedObject9removeRefEv(ptr noundef nonnull align 8 dereferenceable(24) %0)
          to label %if.end unwind label %terminate.lpad

if.end:                                           ; preds = %if.then, %entry
  %numberFormat = getelementptr inbounds i8, ptr %this, i64 336
  %1 = load ptr, ptr %numberFormat, align 8
  %cmp3.not = icmp eq ptr %1, null
  br i1 %cmp3.not, label %if.end7, label %if.then4

if.then4:                                         ; preds = %if.end
  invoke void @_ZNK6icu_7512SharedObject9removeRefEv(ptr noundef nonnull align 8 dereferenceable(24) %1)
          to label %if.end7 unwind label %terminate.lpad

if.end7:                                          ; preds = %if.then4, %if.end
  %pluralRules = getelementptr inbounds i8, ptr %this, i64 344
  %2 = load ptr, ptr %pluralRules, align 8
  %cmp8.not = icmp eq ptr %2, null
  br i1 %cmp8.not, label %if.end12, label %if.then9

if.then9:                                         ; preds = %if.end7
  invoke void @_ZNK6icu_7512SharedObject9removeRefEv(ptr noundef nonnull align 8 dereferenceable(24) %2)
          to label %if.end12 unwind label %terminate.lpad

if.end12:                                         ; preds = %if.then9, %if.end7
  %listFormatter = getelementptr inbounds i8, ptr %this, i64 360
  %3 = load ptr, ptr %listFormatter, align 8
  %isnull = icmp eq ptr %3, null
  br i1 %isnull, label %delete.end, label %delete.notnull

delete.notnull:                                   ; preds = %if.end12
  %vtable = load ptr, ptr %3, align 8
  %vfn = getelementptr inbounds i8, ptr %vtable, i64 8
  %4 = load ptr, ptr %vfn, align 8
  tail call void %4(ptr noundef nonnull align 8 dereferenceable(24) %3) #16
  br label %delete.end

delete.end:                                       ; preds = %delete.notnull, %if.end12
  tail call void @_ZN6icu_756FormatD2Ev(ptr noundef nonnull align 8 dereferenceable(322) %this) #16
  ret void

terminate.lpad:                                   ; preds = %if.then9, %if.then4, %if.then
  %5 = landingpad { ptr, i32 }
          catch ptr null
  %6 = extractvalue { ptr, i32 } %5, 0
  tail call void @__clang_call_terminate(ptr %6) #18
  unreachable
}